target datalayout = "e-m:e-p270:32:32-p271:32:32-p272:64:64-i64:64-i128:128-f80:128-n8:16:32:64-S128"
target triple = "x86_64-pc-linux-gnu"

%struct.numeric = type { i32, i32, i32, i32, i32, ptr, ptr }

; Function Attrs: nounwind uwtable
define internal void @zero_var(ptr noundef %0) #0 {
  %2 = alloca ptr, align 8
  store ptr %0, ptr %2, align 8
  %3 = load ptr, ptr %2, align 8
  %4 = getelementptr inbounds nuw %struct.numeric, ptr %3, i32 0, i32 5
  %5 = load ptr, ptr %4, align 8
  call void @free(ptr noundef %5) #8
  %6 = load ptr, ptr %2, align 8
  %7 = getelementptr inbounds nuw %struct.numeric, ptr %6, i32 0, i32 5
  store ptr null, ptr %7, align 8
  %8 = load ptr, ptr %2, align 8
  %9 = getelementptr inbounds nuw %struct.numeric, ptr %8, i32 0, i32 6
  store ptr null, ptr %9, align 8
  %10 = load ptr, ptr %2, align 8
  %11 = getelementptr inbounds nuw %struct.numeric, ptr %10, i32 0, i32 0
  store i32 0, ptr %11, align 8
  %12 = load ptr, ptr %2, align 8
  %13 = getelementptr inbounds nuw %struct.numeric, ptr %12, i32 0, i32 1
  store i32 0, ptr %13, align 4
  %14 = load ptr, ptr %2, align 8
  %15 = getelementptr inbounds nuw %struct.numeric, ptr %14, i32 0, i32 4
  store i32 0, ptr %15, align 8
  ret void
}

; Function Attrs: nounwind uwtable
define i32 @PGTYPESnumeric_add(ptr noundef %0, ptr noundef %1, ptr noundef %2) #0 {
  %4 = alloca i32, align 4
  %5 = alloca ptr, align 8
  %6 = alloca ptr, align 8
  %7 = alloca ptr, align 8
  store ptr %0, ptr %5, align 8
  store ptr %1, ptr %6, align 8
  store ptr %2, ptr %7, align 8
  %8 = load ptr, ptr %5, align 8
  %9 = getelementptr inbounds nuw %struct.numeric, ptr %8, i32 0, i32 4
  %10 = load i32, ptr %9, align 8
  %11 = icmp eq i32 %10, 0
  br i1 %11, label %12, label %93

12:                                               ; preds = %3
  %13 = load ptr, ptr %6, align 8
  %14 = getelementptr inbounds nuw %struct.numeric, ptr %13, i32 0, i32 4
  %15 = load i32, ptr %14, align 8
  %16 = icmp eq i32 %15, 0
  br i1 %16, label %17, label %27

17:                                               ; preds = %12
  %18 = load ptr, ptr %5, align 8
  %19 = load ptr, ptr %6, align 8
  %20 = load ptr, ptr %7, align 8
  %21 = call i32 @add_abs(ptr noundef %18, ptr noundef %19, ptr noundef %20)
  %22 = icmp ne i32 %21, 0
  br i1 %22, label %23, label %24

23:                                               ; preds = %17
  store i32 -1, ptr %4, align 4
  br label %175

24:                                               ; preds = %17
  %25 = load ptr, ptr %7, align 8
  %26 = getelementptr inbounds nuw %struct.numeric, ptr %25, i32 0, i32 4
  store i32 0, ptr %26, align 8
  br label %92

27:                                               ; preds = %12
  %28 = load ptr, ptr %5, align 8
  %29 = load ptr, ptr %6, align 8
  %30 = call i32 @cmp_abs(ptr noundef %28, ptr noundef %29)
  switch i32 %30, label %91 [
    i32 0, label %31
    i32 1, label %71
    i32 -1, label %81
  ]

31:                                               ; preds = %27
  %32 = load ptr, ptr %7, align 8
  call void @zero_var(ptr noundef %32)
  %33 = load ptr, ptr %5, align 8
  %34 = getelementptr inbounds nuw %struct.numeric, ptr %33, i32 0, i32 2
  %35 = load i32, ptr %34, align 8
  %36 = load ptr, ptr %6, align 8
  %37 = getelementptr inbounds nuw %struct.numeric, ptr %36, i32 0, i32 2
  %38 = load i32, ptr %37, align 8
  %39 = icmp sgt i32 %35, %38
  br i1 %39, label %40, label %44

40:                                               ; preds = %31
  %41 = load ptr, ptr %5, align 8
  %42 = getelementptr inbounds nuw %struct.numeric, ptr %41, i32 0, i32 2
  %43 = load i32, ptr %42, align 8
  br label %48

44:                                               ; preds = %31
  %45 = load ptr, ptr %6, align 8
  %46 = getelementptr inbounds nuw %struct.numeric, ptr %45, i32 0, i32 2
  %47 = load i32, ptr %46, align 8
  br label %48

48:                                               ; preds = %44, %40
  %49 = phi i32 [ %43, %40 ], [ %47, %44 ]
  %50 = load ptr, ptr %7, align 8
  %51 = getelementptr inbounds nuw %struct.numeric, ptr %50, i32 0, i32 2
  store i32 %49, ptr %51, align 8
  %52 = load ptr, ptr %5, align 8
  %53 = getelementptr inbounds nuw %struct.numeric, ptr %52, i32 0, i32 3
  %54 = load i32, ptr %53, align 4
  %55 = load ptr, ptr %6, align 8
  %56 = getelementptr inbounds nuw %struct.numeric, ptr %55, i32 0, i32 3
  %57 = load i32, ptr %56, align 4
  %58 = icmp sgt i32 %54, %57
  br i1 %58, label %59, label %63

59:                                               ; preds = %48
  %60 = load ptr, ptr %5, align 8
  %61 = getelementptr inbounds nuw %struct.numeric, ptr %60, i32 0, i32 3
  %62 = load i32, ptr %61, align 4
  br label %67

63:                                               ; preds = %48
  %64 = load ptr, ptr %6, align 8
  %65 = getelementptr inbounds nuw %struct.numeric, ptr %64, i32 0, i32 3
  %66 = load i32, ptr %65, align 4
  br label %67

67:                                               ; preds = %63, %59
  %68 = phi i32 [ %62, %59 ], [ %66, %63 ]
  %69 = load ptr, ptr %7, align 8
  %70 = getelementptr inbounds nuw %struct.numeric, ptr %69, i32 0, i32 3
  store i32 %68, ptr %70, align 4
  br label %91

71:                                               ; preds = %27
  %72 = load ptr, ptr %5, align 8
  %73 = load ptr, ptr %6, align 8
  %74 = load ptr, ptr %7, align 8
  %75 = call i32 @sub_abs(ptr noundef %72, ptr noundef %73, ptr noundef %74)
  %76 = icmp ne i32 %75, 0
  br i1 %76, label %77, label %78

77:                                               ; preds = %71
  store i32 -1, ptr %4, align 4
  br label %175

78:                                               ; preds = %71
  %79 = load ptr, ptr %7, align 8
  %80 = getelementptr inbounds nuw %struct.numeric, ptr %79, i32 0, i32 4
  store i32 0, ptr %80, align 8
  br label %91

81:                                               ; preds = %27
  %82 = load ptr, ptr %6, align 8
  %83 = load ptr, ptr %5, align 8
  %84 = load ptr, ptr %7, align 8
  %85 = call i32 @sub_abs(ptr noundef %82, ptr noundef %83, ptr noundef %84)
  %86 = icmp ne i32 %85, 0
  br i1 %86, label %87, label %88

87:                                               ; preds = %81
  store i32 -1, ptr %4, align 4
  br label %175

88:                                               ; preds = %81
  %89 = load ptr, ptr %7, align 8
  %90 = getelementptr inbounds nuw %struct.numeric, ptr %89, i32 0, i32 4
  store i32 16384, ptr %90, align 8
  br label %91

91:                                               ; preds = %27, %88, %78, %67
  br label %92

92:                                               ; preds = %91, %24
  br label %174

93:                                               ; preds = %3
  %94 = load ptr, ptr %6, align 8
  %95 = getelementptr inbounds nuw %struct.numeric, ptr %94, i32 0, i32 4
  %96 = load i32, ptr %95, align 8
  %97 = icmp eq i32 %96, 0
  br i1 %97, label %98, label %163

98:                                               ; preds = %93
  %99 = load ptr, ptr %5, align 8
  %100 = load ptr, ptr %6, align 8
  %101 = call i32 @cmp_abs(ptr noundef %99, ptr noundef %100)
  switch i32 %101, label %162 [
    i32 0, label %102
    i32 1, label %142
    i32 -1, label %152
  ]

102:                                              ; preds = %98
  %103 = load ptr, ptr %7, align 8
  call void @zero_var(ptr noundef %103)
  %104 = load ptr, ptr %5, align 8
  %105 = getelementptr inbounds nuw %struct.numeric, ptr %104, i32 0, i32 2
  %106 = load i32, ptr %105, align 8
  %107 = load ptr, ptr %6, align 8
  %108 = getelementptr inbounds nuw %struct.numeric, ptr %107, i32 0, i32 2
  %109 = load i32, ptr %108, align 8
  %110 = icmp sgt i32 %106, %109
  br i1 %110, label %111, label %115

111:                                              ; preds = %102
  %112 = load ptr, ptr %5, align 8
  %113 = getelementptr inbounds nuw %struct.numeric, ptr %112, i32 0, i32 2
  %114 = load i32, ptr %113, align 8
  br label %119

115:                                              ; preds = %102
  %116 = load ptr, ptr %6, align 8
  %117 = getelementptr inbounds nuw %struct.numeric, ptr %116, i32 0, i32 2
  %118 = load i32, ptr %117, align 8
  br label %119

119:                                              ; preds = %115, %111
  %120 = phi i32 [ %114, %111 ], [ %118, %115 ]
  %121 = load ptr, ptr %7, align 8
  %122 = getelementptr inbounds nuw %struct.numeric, ptr %121, i32 0, i32 2
  store i32 %120, ptr %122, align 8
  %123 = load ptr, ptr %5, align 8
  %124 = getelementptr inbounds nuw %struct.numeric, ptr %123, i32 0, i32 3
  %125 = load i32, ptr %124, align 4
  %126 = load ptr, ptr %6, align 8
  %127 = getelementptr inbounds nuw %struct.numeric, ptr %126, i32 0, i32 3
  %128 = load i32, ptr %127, align 4
  %129 = icmp sgt i32 %125, %128
  br i1 %129, label %130, label %134

130:                                              ; preds = %119
  %131 = load ptr, ptr %5, align 8
  %132 = getelementptr inbounds nuw %struct.numeric, ptr %131, i32 0, i32 3
  %133 = load i32, ptr %132, align 4
  br label %138

134:                                              ; preds = %119
  %135 = load ptr, ptr %6, align 8
  %136 = getelementptr inbounds nuw %struct.numeric, ptr %135, i32 0, i32 3
  %137 = load i32, ptr %136, align 4
  br label %138

138:                                              ; preds = %134, %130
  %139 = phi i32 [ %133, %130 ], [ %137, %134 ]
  %140 = load ptr, ptr %7, align 8
  %141 = getelementptr inbounds nuw %struct.numeric, ptr %140, i32 0, i32 3
  store i32 %139, ptr %141, align 4
  br label %162

142:                                              ; preds = %98
  %143 = load ptr, ptr %5, align 8
  %144 = load ptr, ptr %6, align 8
  %145 = load ptr, ptr %7, align 8
  %146 = call i32 @sub_abs(ptr noundef %143, ptr noundef %144, ptr noundef %145)
  %147 = icmp ne i32 %146, 0
  br i1 %147, label %148, label %149

148:                                              ; preds = %142
  store i32 -1, ptr %4, align 4
  br label %175

149:                                              ; preds = %142
  %150 = load ptr, ptr %7, align 8
  %151 = getelementptr inbounds nuw %struct.numeric, ptr %150, i32 0, i32 4
  store i32 16384, ptr %151, align 8
  br label %162

152:                                              ; preds = %98
  %153 = load ptr, ptr %6, align 8
  %154 = load ptr, ptr %5, align 8
  %155 = load ptr, ptr %7, align 8
  %156 = call i32 @sub_abs(ptr noundef %153, ptr noundef %154, ptr noundef %155)
  %157 = icmp ne i32 %156, 0
  br i1 %157, label %158, label %159

158:                                              ; preds = %152
  store i32 -1, ptr %4, align 4
  br label %175

159:                                              ; preds = %152
  %160 = load ptr, ptr %7, align 8
  %161 = getelementptr inbounds nuw %struct.numeric, ptr %160, i32 0, i32 4
  store i32 0, ptr %161, align 8
  br label %162

162:                                              ; preds = %98, %159, %149, %138
  br label %173

163:                                              ; preds = %93
  %164 = load ptr, ptr %5, align 8
  %165 = load ptr, ptr %6, align 8
  %166 = load ptr, ptr %7, align 8
  %167 = call i32 @add_abs(ptr noundef %164, ptr noundef %165, ptr noundef %166)
  %168 = icmp ne i32 %167, 0
  br i1 %168, label %169, label %170

169:                                              ; preds = %163
  store i32 -1, ptr %4, align 4
  br label %175

170:                                              ; preds = %163
  %171 = load ptr, ptr %7, align 8
  %172 = getelementptr inbounds nuw %struct.numeric, ptr %171, i32 0, i32 4
  store i32 16384, ptr %172, align 8
  br label %173

173:                                              ; preds = %170, %162
  br label %174

174:                                              ; preds = %173, %92
  store i32 0, ptr %4, align 4
  br label %175

175:                                              ; preds = %174, %169, %158, %148, %87, %77, %23
  %176 = load i32, ptr %4, align 4
  ret i32 %176
}