; Function Attrs: nounwind uwtable
define range(i32 -1, 1) i32 @PGTYPESnumeric_add(ptr noundef readonly captures(none) %0, ptr noundef readonly captures(none) %1, ptr noundef captures(none) %2) local_unnamed_addr #0 {
  %4 = getelementptr inbounds nuw i8, ptr %0, i64 16
  %5 = load i32, ptr %4, align 8
  %6 = icmp eq i32 %5, 0
  %7 = getelementptr inbounds nuw i8, ptr %1, i64 16
  %8 = load i32, ptr %7, align 8
  %9 = icmp eq i32 %8, 0
  br i1 %6, label %10, label %41

10:                                               ; preds = %3
  br i1 %9, label %11, label %15

11:                                               ; preds = %10
  %12 = tail call fastcc i32 @add_abs(ptr noundef nonnull %0, ptr noundef nonnull %1, ptr noundef %2)
  %.not65 = icmp eq i32 %12, 0
  br i1 %.not65, label %13, label %72

13:                                               ; preds = %11
  %14 = getelementptr inbounds nuw i8, ptr %2, i64 16
  store i32 0, ptr %14, align 8
  br label %72

15:                                               ; preds = %10
  %16 = tail call fastcc i32 @cmp_abs(ptr noundef nonnull %0, ptr noundef nonnull %1)
  switch i32 %16, label %default.unreachable67 [
    i32 0, label %17
    i32 1, label %33
    i32 -1, label %37
  ]

17:                                               ; preds = %15
  %18 = getelementptr inbounds nuw i8, ptr %2, i64 24
  %19 = load ptr, ptr %18, align 8
  tail call void @free(ptr noundef %19) #14
  store i32 0, ptr %2, align 8
  %20 = getelementptr inbounds nuw i8, ptr %2, i64 4
  store i32 0, ptr %20, align 4
  %21 = getelementptr inbounds nuw i8, ptr %2, i64 16
  store i32 0, ptr %21, align 8
  tail call void @llvm.memset.p0.i64(ptr noundef nonnull align 8 dereferenceable(16) %18, i8 0, i64 16, i1 false)
  %22 = getelementptr inbounds nuw i8, ptr %0, i64 8
  %23 = load i32, ptr %22, align 8
  %24 = getelementptr inbounds nuw i8, ptr %1, i64 8
  %25 = load i32, ptr %24, align 8
  %. = tail call i32 @llvm.smax.i32(i32 %23, i32 %25)
  %26 = getelementptr inbounds nuw i8, ptr %2, i64 8
  store i32 %., ptr %26, align 8
  %27 = getelementptr inbounds nuw i8, ptr %0, i64 12
  %28 = load i32, ptr %27, align 4
  %29 = getelementptr inbounds nuw i8, ptr %1, i64 12
  %30 = load i32, ptr %29, align 4
  %31 = tail call i32 @llvm.smax.i32(i32 %28, i32 %30)
  %32 = getelementptr inbounds nuw i8, ptr %2, i64 12
  store i32 %31, ptr %32, align 4
  br label %72

33:                                               ; preds = %15
  %34 = tail call fastcc i32 @sub_abs(ptr noundef nonnull %0, ptr noundef nonnull %1, ptr noundef %2)
  %.not64 = icmp eq i32 %34, 0
  br i1 %.not64, label %35, label %72

35:                                               ; preds = %33
  %36 = getelementptr inbounds nuw i8, ptr %2, i64 16
  store i32 0, ptr %36, align 8
  br label %72

37:                                               ; preds = %15
  %38 = tail call fastcc i32 @sub_abs(ptr noundef nonnull %1, ptr noundef nonnull %0, ptr noundef %2)
  %.not63 = icmp eq i32 %38, 0
  br i1 %.not63, label %39, label %72

39:                                               ; preds = %37
  %40 = getelementptr inbounds nuw i8, ptr %2, i64 16
  store i32 16384, ptr %40, align 8
  br label %72

41:                                               ; preds = %3
  br i1 %9, label %42, label %68

42:                                               ; preds = %41
  %43 = tail call fastcc i32 @cmp_abs(ptr noundef nonnull %0, ptr noundef nonnull %1)
  switch i32 %43, label %default.unreachable67 [
    i32 0, label %44
    i32 1, label %60
    i32 -1, label %64
  ]

44:                                               ; preds = %42
  %45 = getelementptr inbounds nuw i8, ptr %2, i64 24
  %46 = load ptr, ptr %45, align 8
  tail call void @free(ptr noundef %46) #14
  store i32 0, ptr %2, align 8
  %47 = getelementptr inbounds nuw i8, ptr %2, i64 4
  store i32 0, ptr %47, align 4
  %48 = getelementptr inbounds nuw i8, ptr %2, i64 16
  store i32 0, ptr %48, align 8
  tail call void @llvm.memset.p0.i64(ptr noundef nonnull align 8 dereferenceable(16) %45, i8 0, i64 16, i1 false)
  %49 = getelementptr inbounds nuw i8, ptr %0, i64 8
  %50 = load i32, ptr %49, align 8
  %51 = getelementptr inbounds nuw i8, ptr %1, i64 8
  %52 = load i32, ptr %51, align 8
  %.66 = tail call i32 @llvm.smax.i32(i32 %50, i32 %52)
  %53 = getelementptr inbounds nuw i8, ptr %2, i64 8
  store i32 %.66, ptr %53, align 8
  %54 = getelementptr inbounds nuw i8, ptr %0, i64 12
  %55 = load i32, ptr %54, align 4
  %56 = getelementptr inbounds nuw i8, ptr %1, i64 12
  %57 = load i32, ptr %56, align 4
  %58 = tail call i32 @llvm.smax.i32(i32 %55, i32 %57)
  %59 = getelementptr inbounds nuw i8, ptr %2, i64 12
  store i32 %58, ptr %59, align 4
  br label %72

60:                                               ; preds = %42
  %61 = tail call fastcc i32 @sub_abs(ptr noundef nonnull %0, ptr noundef nonnull %1, ptr noundef %2)
  %.not62 = icmp eq i32 %61, 0
  br i1 %.not62, label %62, label %72

62:                                               ; preds = %60
  %63 = getelementptr inbounds nuw i8, ptr %2, i64 16
  store i32 16384, ptr %63, align 8
  br label %72

64:                                               ; preds = %42
  %65 = tail call fastcc i32 @sub_abs(ptr noundef nonnull %1, ptr noundef nonnull %0, ptr noundef %2)
  %.not61 = icmp eq i32 %65, 0
  br i1 %.not61, label %66, label %72

66:                                               ; preds = %64
  %67 = getelementptr inbounds nuw i8, ptr %2, i64 16
  store i32 0, ptr %67, align 8
  br label %72

68:                                               ; preds = %41
  %69 = tail call fastcc i32 @add_abs(ptr noundef nonnull %0, ptr noundef nonnull %1, ptr noundef %2)
  %.not = icmp eq i32 %69, 0
  br i1 %.not, label %70, label %72

70:                                               ; preds = %68
  %71 = getelementptr inbounds nuw i8, ptr %2, i64 16
  store i32 16384, ptr %71, align 8
  br label %72

default.unreachable67:                            ; preds = %42, %15
  unreachable

72:                                               ; preds = %17, %35, %39, %13, %44, %62, %66, %70, %68, %64, %60, %37, %33, %11
  %.0 = phi i32 [ -1, %11 ], [ -1, %33 ], [ -1, %37 ], [ -1, %60 ], [ -1, %64 ], [ -1, %68 ], [ 0, %70 ], [ 0, %66 ], [ 0, %62 ], [ 0, %44 ], [ 0, %13 ], [ 0, %39 ], [ 0, %35 ], [ 0, %17 ]
  ret i32 %.0
}